target datalayout = "e-m:e-p270:32:32-p271:32:32-p272:64:64-i64:64-i128:128-f80:128-n8:16:32:64-S128"
target triple = "x86_64-unknown-linux-gnu"

%"class.grpc_core::DebugLocation" = type { i8 }
%struct.grpc_slice = type { ptr, %"union.grpc_slice::grpc_slice_data" }
%"union.grpc_slice::grpc_slice_data" = type { %"struct.grpc_slice::grpc_slice_data::grpc_slice_refcounted", [8 x i8] }
%"struct.grpc_slice::grpc_slice_data::grpc_slice_refcounted" = type { i64, ptr }
%struct.SliceWrapper = type { %struct.grpc_slice }
%struct.grpc_slice_refcount = type { %"struct.std::atomic.68", ptr }
%"struct.std::atomic.68" = type { %"struct.std::__atomic_base.69" }
%"struct.std::__atomic_base.69" = type { i64 }

; Function Attrs: mustprogress uwtable
define linkonce_odr void @_ZN19grpc_slice_refcount5UnrefEN9grpc_core13DebugLocationE(ptr noundef nonnull align 8 dereferenceable(16) %this) #4 comdat align 2 {
entry:
  %this.addr.i = alloca ptr, align 8
  %__i.addr.i = alloca i64, align 8
  %__m.addr.i = alloca i32, align 4
  %.atomictmp.i = alloca i64, align 8
  %atomic-temp.i = alloca i64, align 8
  %this.addr = alloca ptr, align 8
  %prev_refs = alloca i64, align 8
  store ptr %this, ptr %this.addr, align 8
  %this1 = load ptr, ptr %this.addr, align 8
  %ref_ = getelementptr inbounds %struct.grpc_slice_refcount, ptr %this1, i32 0, i32 0
  store ptr %ref_, ptr %this.addr.i, align 8
  store i64 1, ptr %__i.addr.i, align 8
  store i32 4, ptr %__m.addr.i, align 4
  %this1.i = load ptr, ptr %this.addr.i, align 8
  %0 = load i32, ptr %__m.addr.i, align 4
  %1 = load i64, ptr %__i.addr.i, align 8
  store i64 %1, ptr %.atomictmp.i, align 8
  switch i32 %0, label %monotonic.i [
    i32 1, label %acquire.i
    i32 2, label %acquire.i
    i32 3, label %release.i
    i32 4, label %acqrel.i
    i32 5, label %seqcst.i
  ]

monotonic.i:                                      ; preds = %entry
  %2 = load i64, ptr %.atomictmp.i, align 8
  %3 = atomicrmw sub ptr %this1.i, i64 %2 monotonic, align 8
  store i64 %3, ptr %atomic-temp.i, align 8
  br label %_ZNSt13__atomic_baseImE9fetch_subEmSt12memory_order.exit

acquire.i:                                        ; preds = %entry, %entry
  %4 = load i64, ptr %.atomictmp.i, align 8
  %5 = atomicrmw sub ptr %this1.i, i64 %4 acquire, align 8
  store i64 %5, ptr %atomic-temp.i, align 8
  br label %_ZNSt13__atomic_baseImE9fetch_subEmSt12memory_order.exit

release.i:                                        ; preds = %entry
  %6 = load i64, ptr %.atomictmp.i, align 8
  %7 = atomicrmw sub ptr %this1.i, i64 %6 release, align 8
  store i64 %7, ptr %atomic-temp.i, align 8
  br label %_ZNSt13__atomic_baseImE9fetch_subEmSt12memory_order.exit

acqrel.i:                                         ; preds = %entry
  %8 = load i64, ptr %.atomictmp.i, align 8
  %9 = atomicrmw sub ptr %this1.i, i64 %8 acq_rel, align 8
  store i64 %9, ptr %atomic-temp.i, align 8
  br label %_ZNSt13__atomic_baseImE9fetch_subEmSt12memory_order.exit

seqcst.i:                                         ; preds = %entry
  %10 = load i64, ptr %.atomictmp.i, align 8
  %11 = atomicrmw sub ptr %this1.i, i64 %10 seq_cst, align 8
  store i64 %11, ptr %atomic-temp.i, align 8
  br label %_ZNSt13__atomic_baseImE9fetch_subEmSt12memory_order.exit

_ZNSt13__atomic_baseImE9fetch_subEmSt12memory_order.exit: ; preds = %seqcst.i, %acqrel.i, %release.i, %acquire.i, %monotonic.i
  %12 = load i64, ptr %atomic-temp.i, align 8
  store i64 %12, ptr %prev_refs, align 8
  %13 = load i64, ptr %prev_refs, align 8
  %cmp = icmp eq i64 %13, 1
  br i1 %cmp, label %if.then, label %if.end

if.then:                                          ; preds = %_ZNSt13__atomic_baseImE9fetch_subEmSt12memory_order.exit
  %destroyer_fn_ = getelementptr inbounds %struct.grpc_slice_refcount, ptr %this1, i32 0, i32 1
  %14 = load ptr, ptr %destroyer_fn_, align 8
  call void %14(ptr noundef %this1)
  br label %if.end

if.end:                                           ; preds = %if.then, %_ZNSt13__atomic_baseImE9fetch_subEmSt12memory_order.exit
  ret void
}

; Function Attrs: mustprogress uwtable
define linkonce_odr void @_ZN9grpc_core11CSliceUnrefERK10grpc_sliceNS_13DebugLocationE(ptr noundef nonnull align 8 dereferenceable(32) %slice) #4 comdat {
entry:
  %slice.addr = alloca ptr, align 8
  store ptr %slice, ptr %slice.addr, align 8
  %0 = load ptr, ptr %slice.addr, align 8
  %refcount = getelementptr inbounds %struct.grpc_slice, ptr %0, i32 0, i32 0
  %1 = load ptr, ptr %refcount, align 8
  %2 = ptrtoint ptr %1 to i64
  %cmp = icmp ugt i64 %2, 1
  br i1 %cmp, label %if.then, label %if.end

if.then:                                          ; preds = %entry
  %3 = load ptr, ptr %slice.addr, align 8
  %refcount1 = getelementptr inbounds %struct.grpc_slice, ptr %3, i32 0, i32 0
  %4 = load ptr, ptr %refcount1, align 8
  call void @_ZN19grpc_slice_refcount5UnrefEN9grpc_core13DebugLocationE(ptr noundef nonnull align 8 dereferenceable(16) %4)
  br label %if.end

if.end:                                           ; preds = %if.then, %entry
  ret void
}

; Function Attrs: mustprogress nounwind uwtable
define linkonce_odr void @_ZN9grpc_core13DebugLocationC2Ev(ptr noundef nonnull align 1 dereferenceable(1) %this) unnamed_addr #5 comdat align 2 {
entry:
  %this.addr = alloca ptr, align 8
  store ptr %this, ptr %this.addr, align 8
  ret void
}

; Function Attrs: mustprogress nounwind uwtable
define internal void @_ZZN9grpc_core30FileExternalAccountCredentials20RetrieveSubjectTokenEPNS_26ExternalAccountCredentials18HTTPRequestContextERKNS1_7OptionsESt8functionIFvNSt7__cxx1112basic_stringIcSt11char_traitsIcESaIcEEEN4absl12lts_202308026StatusEEEEN12SliceWrapperD2Ev(ptr noundef nonnull align 8 dereferenceable(32) %this) unnamed_addr #5 align 2 personality ptr @__gxx_personality_v0 {
entry:
  %this.addr = alloca ptr, align 8
  %agg.tmp = alloca %"class.grpc_core::DebugLocation", align 1
  store ptr %this, ptr %this.addr, align 8
  %this1 = load ptr, ptr %this.addr, align 8
  %slice = getelementptr inbounds %struct.SliceWrapper, ptr %this1, i32 0, i32 0
  invoke void @_ZN9grpc_core13DebugLocationC2Ev(ptr noundef nonnull align 1 dereferenceable(1) %agg.tmp)
          to label %invoke.cont unwind label %terminate.lpad

invoke.cont:                                      ; preds = %entry
  invoke void @_ZN9grpc_core11CSliceUnrefERK10grpc_sliceNS_13DebugLocationE(ptr noundef nonnull align 8 dereferenceable(32) %slice)
          to label %invoke.cont2 unwind label %terminate.lpad

invoke.cont2:                                     ; preds = %invoke.cont
  ret void

terminate.lpad:                                   ; preds = %invoke.cont, %entry
  %0 = landingpad { ptr, i32 }
          catch ptr null
  %1 = extractvalue { ptr, i32 } %0, 0
  call void @__clang_call_terminate(ptr %1) #15
  unreachable
}