; Function Attrs: mustprogress nounwind uwtable
define internal fastcc void @_ZZN9grpc_core30FileExternalAccountCredentials20RetrieveSubjectTokenEPNS_26ExternalAccountCredentials18HTTPRequestContextERKNS1_7OptionsESt8functionIFvNSt7__cxx1112basic_stringIcSt11char_traitsIcESaIcEEEN4absl12lts_202308026StatusEEEEN12SliceWrapperD2Ev(ptr %this.0.val) unnamed_addr #4 align 2 personality ptr @__gxx_personality_v0 {
entry:
  %cmp.i = icmp ugt ptr %this.0.val, inttoptr (i64 1 to ptr)
  br i1 %cmp.i, label %if.then.i, label %invoke.cont2

if.then.i:                                        ; preds = %entry
  %0 = atomicrmw sub ptr %this.0.val, i64 1 acq_rel, align 8
  %cmp.i.i = icmp eq i64 %0, 1
  br i1 %cmp.i.i, label %if.then.i.i, label %invoke.cont2

if.then.i.i:                                      ; preds = %if.then.i
  %destroyer_fn_.i.i = getelementptr inbounds i8, ptr %this.0.val, i64 8
  %1 = load ptr, ptr %destroyer_fn_.i.i, align 8
  invoke void %1(ptr noundef nonnull %this.0.val)
          to label %invoke.cont2 unwind label %terminate.lpad

invoke.cont2:                                     ; preds = %if.then.i, %entry, %if.then.i.i
  ret void

terminate.lpad:                                   ; preds = %if.then.i.i
  %2 = landingpad { ptr, i32 }
          catch ptr null
  %3 = extractvalue { ptr, i32 } %2, 0
  tail call void @__clang_call_terminate(ptr %3) #18
  unreachable
}